; ModuleID = '38/136.c'
source_filename = "38/136.c"
target datalayout = "e-m:e-p270:32:32-p271:32:32-p272:64:64-i64:64-f80:128-n8:16:32:64-S128"
target triple = "x86_64-pc-linux-gnu"

@.str = private unnamed_addr constant [3 x i8] c"%d\00", align 1
@.str.1 = private unnamed_addr constant [4 x i8] c"%lf\00", align 1
@.str.2 = private unnamed_addr constant [6 x i8] c"%.5f\0A\00", align 1

; Function Attrs: noinline nounwind uwtable
define dso_local i32 @main() #0 {
  %1 = alloca i32, align 4
  %2 = alloca i32, align 4
  %3 = alloca i32, align 4
  %4 = alloca i32, align 4
  %5 = alloca i32, align 4
  %6 = alloca [1001 x double], align 16
  %7 = alloca double, align 8
  %8 = alloca double, align 8
  %9 = alloca double, align 8
  %10 = alloca double*, align 8
  store i32 0, i32* %1, align 4
  %11 = call i32 (i8*, ...) @__isoc99_scanf(i8* getelementptr inbounds ([3 x i8], [3 x i8]* @.str, i64 0, i64 0), i32* %4)
  store i32 1, i32* %2, align 4
  br label %12

12:                                               ; preds = %70, %0
  %13 = load i32, i32* %2, align 4
  %14 = load i32, i32* %4, align 4
  %15 = icmp sle i32 %13, %14
  br i1 %15, label %16, label %73

16:                                               ; preds = %12
  store double 0.000000e+00, double* %7, align 8
  %17 = getelementptr inbounds [1001 x double], [1001 x double]* %6, i64 0, i64 0
  store double* %17, double** %10, align 8
  %18 = call i32 (i8*, ...) @__isoc99_scanf(i8* getelementptr inbounds ([3 x i8], [3 x i8]* @.str, i64 0, i64 0), i32* %5)
  store i32 0, i32* %3, align 4
  br label %19

19:                                               ; preds = %30, %16
  %20 = load i32, i32* %3, align 4
  %21 = load i32, i32* %5, align 4
  %22 = icmp slt i32 %20, %21
  br i1 %22, label %23, label %35

23:                                               ; preds = %19
  %24 = load double*, double** %10, align 8
  %25 = call i32 (i8*, ...) @__isoc99_scanf(i8* getelementptr inbounds ([4 x i8], [4 x i8]* @.str.1, i64 0, i64 0), double* %24)
  %26 = load double*, double** %10, align 8
  %27 = load double, double* %26, align 8
  %28 = load double, double* %7, align 8
  %29 = fadd double %28, %27
  store double %29, double* %7, align 8
  br label %30

30:                                               ; preds = %23
  %31 = load double*, double** %10, align 8
  %32 = getelementptr inbounds double, double* %31, i32 1
  store double* %32, double** %10, align 8
  %33 = load i32, i32* %3, align 4
  %34 = add nsw i32 %33, 1
  store i32 %34, i32* %3, align 4
  br label %19

35:                                               ; preds = %19
  %36 = load double, double* %7, align 8
  %37 = load i32, i32* %5, align 4
  %38 = sitofp i32 %37 to double
  %39 = fdiv double %36, %38
  store double %39, double* %9, align 8
  %40 = getelementptr inbounds [1001 x double], [1001 x double]* %6, i64 0, i64 0
  store double* %40, double** %10, align 8
  store double 0.000000e+00, double* %7, align 8
  store i32 0, i32* %3, align 4
  br label %41

41:                                               ; preds = %57, %35
  %42 = load i32, i32* %3, align 4
  %43 = load i32, i32* %5, align 4
  %44 = icmp slt i32 %42, %43
  br i1 %44, label %45, label %62

45:                                               ; preds = %41
  %46 = load double*, double** %10, align 8
  %47 = load double, double* %46, align 8
  %48 = load double, double* %9, align 8
  %49 = fsub double %47, %48
  %50 = load double*, double** %10, align 8
  %51 = load double, double* %50, align 8
  %52 = load double, double* %9, align 8
  %53 = fsub double %51, %52
  %54 = fmul double %49, %53
  %55 = load double, double* %7, align 8
  %56 = fadd double %55, %54
  store double %56, double* %7, align 8
  br label %57

57:                                               ; preds = %45
  %58 = load double*, double** %10, align 8
  %59 = getelementptr inbounds double, double* %58, i32 1
  store double* %59, double** %10, align 8
  %60 = load i32, i32* %3, align 4
  %61 = add nsw i32 %60, 1
  store i32 %61, i32* %3, align 4
  br label %41

62:                                               ; preds = %41
  %63 = load double, double* %7, align 8
  %64 = load i32, i32* %5, align 4
  %65 = sitofp i32 %64 to double
  %66 = fdiv double %63, %65
  %67 = call double @sqrt(double %66) #3
  store double %67, double* %8, align 8
  %68 = load double, double* %8, align 8
  %69 = call i32 (i8*, ...) @printf(i8* getelementptr inbounds ([6 x i8], [6 x i8]* @.str.2, i64 0, i64 0), double %68)
  br label %70

70:                                               ; preds = %62
  %71 = load i32, i32* %2, align 4
  %72 = add nsw i32 %71, 1
  store i32 %72, i32* %2, align 4
  br label %12

73:                                               ; preds = %12
  %74 = load i32, i32* %1, align 4
  ret i32 %74
}

declare dso_local i32 @__isoc99_scanf(i8*, ...) #1

; Function Attrs: nounwind
declare dso_local double @sqrt(double) #2

declare dso_local i32 @printf(i8*, ...) #1


!llvm.module.flags = !{!0}
!llvm.ident = !{!1}

!0 = !{i32 1, !"wchar_size", i32 4}
!1 = !{!"clang version 10.0.0-4ubuntu1 "}
